; Function Attrs: mustprogress nofree norecurse nosync nounwind willreturn memory(argmem: read) uwtable
define internal fastcc i64 @sdslen(ptr nocapture noundef readonly %s) unnamed_addr #2 {
entry:
  %arrayidx = getelementptr inbounds i8, ptr %s, i64 -1
  %0 = load i8, ptr %arrayidx, align 1
  %conv = zext i8 %0 to i32
  %and = and i32 %conv, 7
  switch i32 %and, label %return [
    i32 0, label %sw.bb
    i32 1, label %sw.bb3
    i32 2, label %sw.bb5
    i32 3, label %sw.bb9
    i32 4, label %sw.bb13
  ]

sw.bb:                                            ; preds = %entry
  %shr = lshr i32 %conv, 3
  %conv2 = zext nneg i32 %shr to i64
  br label %return

sw.bb3:                                           ; preds = %entry
  %add.ptr = getelementptr inbounds i8, ptr %s, i64 -3
  %1 = load i8, ptr %add.ptr, align 1
  %conv4 = zext i8 %1 to i64
  br label %return

sw.bb5:                                           ; preds = %entry
  %add.ptr6 = getelementptr inbounds i8, ptr %s, i64 -5
  %2 = load i16, ptr %add.ptr6, align 1
  %conv8 = zext i16 %2 to i64
  br label %return

sw.bb9:                                           ; preds = %entry
  %add.ptr10 = getelementptr inbounds i8, ptr %s, i64 -9
  %3 = load i32, ptr %add.ptr10, align 1
  %conv12 = zext i32 %3 to i64
  br label %return

sw.bb13:                                          ; preds = %entry
  %add.ptr14 = getelementptr inbounds i8, ptr %s, i64 -17
  %4 = load i64, ptr %add.ptr14, align 1
  br label %return

return:                                           ; preds = %entry, %sw.bb13, %sw.bb9, %sw.bb5, %sw.bb3, %sw.bb
  %retval.0 = phi i64 [ %4, %sw.bb13 ], [ %conv12, %sw.bb9 ], [ %conv8, %sw.bb5 ], [ %conv4, %sw.bb3 ], [ %conv2, %sw.bb ], [ 0, %entry ]
  ret i64 %retval.0
}